target datalayout = "e-m:e-p270:32:32-p271:32:32-p272:64:64-i64:64-i128:128-f80:128-n8:16:32:64-S128"
target triple = "x86_64-pc-linux-gnu"

%struct.pg_wchar_tbl = type { ptr, ptr, ptr, ptr, ptr, ptr, i32 }

; Function Attrs: nounwind uwtable
define dso_local i32 @pg_encoding_verifymbchar(i32 noundef %0, ptr noundef %1, i32 noundef %2) #1 {
  %4 = alloca i32, align 4
  %5 = alloca ptr, align 8
  %6 = alloca i32, align 4
  store i32 %0, ptr %4, align 4
  store ptr %1, ptr %5, align 8
  store i32 %2, ptr %6, align 4
  %7 = load i32, ptr %4, align 4
  %8 = icmp sge i32 %7, 0
  br i1 %8, label %9, label %21

9:                                                ; preds = %3
  %10 = load i32, ptr %4, align 4
  %11 = icmp slt i32 %10, 42
  br i1 %11, label %12, label %21

12:                                               ; preds = %9
  %13 = load i32, ptr %4, align 4
  %14 = sext i32 %13 to i64
  %15 = getelementptr inbounds [42 x %struct.pg_wchar_tbl], ptr @pg_wchar_table, i64 0, i64 %14
  %16 = getelementptr inbounds nuw %struct.pg_wchar_tbl, ptr %15, i32 0, i32 4
  %17 = load ptr, ptr %16, align 8
  %18 = load ptr, ptr %5, align 8
  %19 = load i32, ptr %6, align 4
  %20 = call i32 %17(ptr noundef %18, i32 noundef %19)
  br label %26

21:                                               ; preds = %9, %3
  %22 = load ptr, ptr getelementptr inbounds nuw (%struct.pg_wchar_tbl, ptr @pg_wchar_table, i32 0, i32 4), align 16
  %23 = load ptr, ptr %5, align 8
  %24 = load i32, ptr %6, align 4
  %25 = call i32 %22(ptr noundef %23, i32 noundef %24)
  br label %26

26:                                               ; preds = %21, %12
  %27 = phi i32 [ %20, %12 ], [ %25, %21 ]
  ret i32 %27
}