; Function Attrs: nounwind uwtable
define dso_local i32 @pg_encoding_verifymbchar(i32 noundef %0, ptr noundef %1, i32 noundef %2) local_unnamed_addr #7 {
  %or.cond = icmp ult i32 %0, 42
  br i1 %or.cond, label %4, label %9

4:                                                ; preds = %3
  %5 = zext nneg i32 %0 to i64
  %6 = getelementptr inbounds nuw [42 x %struct.pg_wchar_tbl], ptr @pg_wchar_table, i64 0, i64 %5, i32 4
  %7 = load ptr, ptr %6, align 8
  %8 = tail call i32 %7(ptr noundef %1, i32 noundef %2) #10
  br label %9

9:                                                ; preds = %3, %4
  %10 = phi i32 [ %8, %4 ], [ 1, %3 ]
  ret i32 %10
}